target datalayout = "e-m:e-p270:32:32-p271:32:32-p272:64:64-i64:64-i128:128-f80:128-n8:16:32:64-S128"
target triple = "x86_64-unknown-linux-gnu"

%"class.tbb::detail::d1::spin_mutex" = type { %"struct.std::atomic" }
%"struct.std::atomic" = type { %"struct.std::__atomic_base" }
%"struct.std::__atomic_base" = type { i8 }
%"class.openvdb::v11_0::points::AttributeArray" = type { ptr, i8, %"class.tbb::detail::d1::spin_mutex", i8, i8, %"struct.std::atomic.0", %union.anon }
%"struct.std::atomic.0" = type { %"struct.std::__atomic_base.1" }
%"struct.std::__atomic_base.1" = type { i32 }
%union.anon = type { %"class.std::unique_ptr" }
%"class.std::unique_ptr" = type { %"struct.std::__uniq_ptr_data" }
%"struct.std::__uniq_ptr_data" = type { %"class.std::__uniq_ptr_impl" }
%"class.std::__uniq_ptr_impl" = type { %"class.std::tuple" }
%"class.std::tuple" = type { %"struct.std::_Tuple_impl" }
%"struct.std::_Tuple_impl" = type { %"struct.std::_Head_base.3" }
%"struct.std::_Head_base.3" = type { ptr }

; Function Attrs: mustprogress nounwind uwtable
define void @_ZN7openvdb5v11_06points14AttributeArray12setStreamingEb(ptr noundef nonnull align 8 dereferenceable(24) %this, i1 noundef zeroext %state) #5 align 2 {
entry:
  %this.addr = alloca ptr, align 8
  %state.addr = alloca i8, align 1
  store ptr %this, ptr %this.addr, align 8
  %frombool = zext i1 %state to i8
  store i8 %frombool, ptr %state.addr, align 1
  %this1 = load ptr, ptr %this.addr, align 8
  %0 = load i8, ptr %state.addr, align 1
  %tobool = trunc i8 %0 to i1
  br i1 %tobool, label %if.then, label %if.else

if.then:                                          ; preds = %entry
  %mFlags = getelementptr inbounds %"class.openvdb::v11_0::points::AttributeArray", ptr %this1, i32 0, i32 3
  %1 = load i8, ptr %mFlags, align 2
  %conv = zext i8 %1 to i32
  %or = or i32 %conv, 16
  %conv2 = trunc i32 %or to i8
  %mFlags3 = getelementptr inbounds %"class.openvdb::v11_0::points::AttributeArray", ptr %this1, i32 0, i32 3
  store i8 %conv2, ptr %mFlags3, align 2
  br label %if.end

if.else:                                          ; preds = %entry
  %mFlags4 = getelementptr inbounds %"class.openvdb::v11_0::points::AttributeArray", ptr %this1, i32 0, i32 3
  %2 = load i8, ptr %mFlags4, align 2
  %conv5 = zext i8 %2 to i32
  %and = and i32 %conv5, -17
  %conv6 = trunc i32 %and to i8
  %mFlags7 = getelementptr inbounds %"class.openvdb::v11_0::points::AttributeArray", ptr %this1, i32 0, i32 3
  store i8 %conv6, ptr %mFlags7, align 2
  br label %if.end

if.end:                                           ; preds = %if.else, %if.then
  ret void
}