; Function Attrs: mustprogress nofree norecurse nosync nounwind willreturn memory(argmem: readwrite) uwtable
define void @_ZN7openvdb5v11_06points14AttributeArray12setStreamingEb(ptr nocapture noundef nonnull align 8 dereferenceable(24) %this, i1 noundef zeroext %state) local_unnamed_addr #5 align 2 {
entry:
  %mFlags = getelementptr inbounds i8, ptr %this, i64 10
  %0 = load i8, ptr %mFlags, align 2
  %1 = and i8 %0, -17
  %masksel = select i1 %state, i8 16, i8 0
  %.sink = or disjoint i8 %1, %masksel
  store i8 %.sink, ptr %mFlags, align 2
  ret void
}